; Function Attrs: mustprogress uwtable
define void @_ZN18OpenImageIO_v2_6_010Filesystem7IOProxy5errorENS_17basic_string_viewIcSt11char_traitsIcEEE(ptr noundef nonnull align 8 dereferenceable(88) %this, ptr nocapture noundef readonly %e) local_unnamed_addr #5 align 2 personality ptr @__gxx_personality_v0 {
entry:
  %call1.i.i.i = tail call noundef i32 @pthread_mutex_lock(ptr noundef nonnull @_ZN18OpenImageIO_v2_6_0L19ioproxy_error_mutexE) #32
  %tobool.not.i.i = icmp eq i32 %call1.i.i.i, 0
  br i1 %tobool.not.i.i, label %_ZNSt10lock_guardISt5mutexEC2ERS0_.exit, label %if.then.i.i

if.then.i.i:                                      ; preds = %entry
  tail call void @_ZSt20__throw_system_errori(i32 noundef %call1.i.i.i) #36
  unreachable

_ZNSt10lock_guardISt5mutexEC2ERS0_.exit:          ; preds = %entry
  %m_error = getelementptr inbounds i8, ptr %this, i64 56
  %0 = load ptr, ptr %e, align 8
  %m_len.i.i.i.i = getelementptr inbounds i8, ptr %e, i64 8
  %1 = load i64, ptr %m_len.i.i.i.i, align 8
  %call4.i.i1 = invoke noundef nonnull align 8 dereferenceable(32) ptr @_ZNSt7__cxx1112basic_stringIcSt11char_traitsIcESaIcEE6assignEPKcm(ptr noundef nonnull align 8 dereferenceable(32) %m_error, ptr noundef %0, i64 noundef %1)
          to label %invoke.cont unwind label %lpad

invoke.cont:                                      ; preds = %_ZNSt10lock_guardISt5mutexEC2ERS0_.exit
  %call1.i.i.i2 = tail call noundef i32 @pthread_mutex_unlock(ptr noundef nonnull @_ZN18OpenImageIO_v2_6_0L19ioproxy_error_mutexE) #32
  ret void

lpad:                                             ; preds = %_ZNSt10lock_guardISt5mutexEC2ERS0_.exit
  %2 = landingpad { ptr, i32 }
          cleanup
  %call1.i.i.i3 = tail call noundef i32 @pthread_mutex_unlock(ptr noundef nonnull @_ZN18OpenImageIO_v2_6_0L19ioproxy_error_mutexE) #32
  resume { ptr, i32 } %2
}